TN:
SF:/home/orelshalem/final-project-OS-threadpool/client_main.cpp
FN:5,main
FNDA:1,main
FNF:1
FNH:1
DA:5,1
DA:7,2
DA:8,1
DA:10,1
DA:11,1
DA:13,1
DA:17,22
DA:18,22
DA:20,22
DA:22,1
DA:23,1
DA:26,21
DA:29,1
DA:30,1
LF:14
LH:14
end_of_record
TN:
SF:/home/orelshalem/final-project-OS-threadpool/src/client/Client.cpp
FN:8,_ZN6ClientC2ERKNSt7__cxx1112basic_stringIcSt11char_traitsIcESaIcEEEi
FN:10,_ZN6ClientD2Ev
FN:18,_ZN6Client15connectToServerEv
FN:51,_ZN6Client11sendRequestERKNSt7__cxx1112basic_stringIcSt11char_traitsIcESaIcEEE
FN:136,_ZN6Client19sendMetricsRequestsEv
FN:153,_ZN6Client15receiveResponseB5cxx11Ev
FNDA:1,_ZN6ClientD2Ev
FNDA:49,_ZN6Client15receiveResponseB5cxx11Ev
FNDA:23,_ZN6Client15connectToServerEv
FNDA:1,_ZN6ClientC2ERKNSt7__cxx1112basic_stringIcSt11char_traitsIcESaIcEEEi
FNDA:22,_ZN6Client11sendRequestERKNSt7__cxx1112basic_stringIcSt11char_traitsIcESaIcEEE
FNDA:0,_ZN6Client19sendMetricsRequestsEv
FNF:6
FNH:5
DA:8,1
DA:10,1
DA:12,1
DA:14,1
DA:16,1
DA:18,23
DA:20,23
DA:22,1
DA:23,1
DA:25,0
DA:26,0
DA:30,1
DA:31,1
DA:33,1
DA:35,0
DA:36,0
DA:39,1
DA:41,0
DA:42,0
DA:46,1
DA:47,1
DA:48,1
DA:51,22
DA:53,22
DA:55,22
DA:56,22
DA:58,22
DA:59,22
DA:61,22
DA:63,0
DA:64,0
DA:65,0
DA:66,0
DA:68,0
DA:69,0
DA:71,0
DA:73,22
DA:76,2
DA:77,2
DA:78,2
DA:79,2
DA:81,0
DA:82,0
DA:85,4
DA:86,2
DA:87,2
DA:89,2
DA:90,15
DA:92,13
DA:93,13
DA:94,13
DA:95,13
DA:96,13
DA:98,2
DA:99,2
DA:100,20
DA:102,3
DA:103,3
DA:104,3
DA:105,3
DA:106,3
DA:107,17
DA:109,0
DA:111,0
DA:112,0
DA:113,0
DA:114,0
DA:116,0
DA:118,0
DA:119,33
DA:120,29
DA:121,46
DA:122,12
DA:125,6
DA:127,6
DA:128,6
DA:129,6
DA:130,6
DA:131,6
DA:134,22
DA:136,0
DA:142,0
DA:144,0
DA:146,0
DA:147,0
DA:148,0
DA:149,0
DA:150,0
DA:151,0
DA:153,49
DA:155,49
DA:156,49
DA:164,2023
DA:165,119
DA:166,119
DA:167,119
DA:169,119
DA:170,119
DA:172,0
DA:173,0
DA:175,119
DA:177,71
DA:178,71
DA:180,70
DA:181,70
DA:185,1
DA:190,48
DA:192,70
DA:194,98
DA:195,0
LF:110
LH:76
end_of_record
TN:
SF:/home/orelshalem/final-project-OS-threadpool/src/common/Graph.cpp
FN:6,_ZN5GraphC2Ev
FN:12,_ZN5GraphC2Ei
FN:20,_ZN5Graph7addEdgeEiii
FN:27,_ZN5Graph9addVertexEv
FN:34,_ZN5Graph10removeEdgeEii
FN:40,_ZZN5Graph10removeEdgeEiiENKUlRK4EdgeE_clES2_
FN:43,_ZZN5Graph10removeEdgeEiiENKUlRK4EdgeE0_clES2_
FN:54,_ZN5Graph12removeVertexEi
FN:66,_ZZN5Graph12removeVertexEiENKUlRK4EdgeE_clES2_
FN:90,_ZN5Graph12changeWeightEiii
FN:96,_ZZN5Graph12changeWeightEiiiENKUlRK4EdgeE_clES2_
FN:99,_ZZN5Graph12changeWeightEiiiENKUlRK4EdgeE0_clES2_
FN:113,_ZNK5Graph16getAdjacentEdgesEi
FN:123,_ZNK5Graph11getVerticesEv
FN:128,_ZNK5Graph8getEdgesEv
FN:138,_ZNK5Graph10printGraphEv
FN:151,_ZNK5Graph8toStringB5cxx11Ev
FNDA:30,_ZZN5Graph12removeVertexEiENKUlRK4EdgeE_clES2_
FNDA:0,_ZNK5Graph10printGraphEv
FNDA:2,_ZZN5Graph12changeWeightEiiiENKUlRK4EdgeE_clES2_
FNDA:7,_ZZN5Graph10removeEdgeEiiENKUlRK4EdgeE_clES2_
FNDA:0,_ZZN5Graph12changeWeightEiiiENKUlRK4EdgeE0_clES2_
FNDA:6,_ZZN5Graph10removeEdgeEiiENKUlRK4EdgeE0_clES2_
FNDA:1,_ZN5Graph9addVertexEv
FNDA:2,_ZN5Graph12removeVertexEi
FNDA:2,_ZN5Graph10removeEdgeEii
FNDA:2,_ZN5GraphC2Ei
FNDA:18,_ZN5Graph7addEdgeEiii
FNDA:12,_ZNK5Graph8toStringB5cxx11Ev
FNDA:15,_ZNK5Graph16getAdjacentEdgesEi
FNDA:1,_ZN5GraphC2Ev
FNDA:698,_ZNK5Graph11getVerticesEv
FNDA:3,_ZNK5Graph8getEdgesEv
FNDA:1,_ZN5Graph12changeWeightEiii
FNF:17
FNH:15
DA:6,1
DA:10,1
DA:12,2
DA:14,11
DA:16,9
DA:18,2
DA:20,18
DA:22,18
DA:23,18
DA:24,18
DA:25,18
DA:27,1
DA:29,1
DA:30,1
DA:31,1
DA:34,2
DA:36,2
DA:37,2
DA:39,2
DA:40,7
DA:41,7
DA:42,2
DA:43,6
DA:44,6
DA:46,2
DA:48,2
DA:49,2
DA:51,2
DA:54,2
DA:56,2
DA:58,0
DA:62,12
DA:64,20
DA:65,10
DA:66,30
DA:67,30
DA:68,20
DA:72,2
DA:75,2
DA:76,10
DA:78,8
DA:79,26
DA:81,18
DA:82,18
DA:85,2
DA:87,2
DA:88,2
DA:90,1
DA:92,1
DA:93,1
DA:95,1
DA:96,2
DA:97,2
DA:98,1
DA:99,0
DA:100,0
DA:102,1
DA:104,1
DA:107,0
DA:108,0
DA:110,0
DA:113,15
DA:115,15
DA:116,15
DA:118,15
DA:120,0
DA:123,698
DA:125,698
DA:128,3
DA:130,3
DA:131,18
DA:133,15
DA:135,3
DA:138,0
DA:140,0
DA:142,0
DA:143,0
DA:145,0
DA:147,0
DA:149,0
DA:151,12
DA:153,12
DA:154,12
DA:155,68
DA:157,56
DA:158,56
DA:159,56
DA:161,1
DA:165,217
DA:167,162
DA:171,24
DA:172,12
LF:92
LH:78
end_of_record
TN:
SF:/home/orelshalem/final-project-OS-threadpool/src/common/Graph.hpp
FN:9,_ZN4EdgeC2Eiii
FN:12,_ZNK4EdgeltERKS_
FNDA:59,_ZN4EdgeC2Eiii
FNDA:93,_ZNK4EdgeltERKS_
FNF:2
FNH:2
DA:9,59
DA:12,93
DA:14,93
LF:3
LH:3
end_of_record
TN:
SF:/home/orelshalem/final-project-OS-threadpool/src/common/KruskalMST.cpp
FN:11,_ZN10KruskalMST7findMSTERK5Graph
FN:40,_ZZN10KruskalMST7findMSTERK5GraphENKUliE_clEi
FN:50,_ZZN10KruskalMST7findMSTERK5GraphENKUliiE0_clEii
FNDA:7,_ZZN10KruskalMST7findMSTERK5GraphENKUliiE0_clEii
FNDA:2,_ZN10KruskalMST7findMSTERK5Graph
FNDA:46,_ZZN10KruskalMST7findMSTERK5GraphENKUliE_clEi
FNF:3
FNH:3
DA:11,2
DA:13,2
DA:15,0
DA:18,2
DA:19,2
DA:20,2
DA:23,11
DA:25,9
DA:26,9
DA:27,9
DA:30,2
DA:33,2
DA:34,11
DA:36,9
DA:40,46
DA:42,46
DA:44,8
DA:46,46
DA:47,2
DA:50,7
DA:52,7
DA:53,7
DA:54,7
DA:56,7
DA:58,9
DA:61,12
DA:63,12
DA:64,12
DA:66,12
DA:68,7
DA:69,7
DA:72,12
DA:74,2
DA:78,4
DA:79,2
LF:35
LH:34
end_of_record
TN:
SF:/home/orelshalem/final-project-OS-threadpool/src/common/MSTFactory.cpp
FN:10,_ZN10MSTFactory9createMSTERKNSt7__cxx1112basic_stringIcSt11char_traitsIcESaIcEEE
FNDA:3,_ZN10MSTFactory9createMSTERKNSt7__cxx1112basic_stringIcSt11char_traitsIcESaIcEEE
FNF:1
FNH:1
DA:10,3
DA:12,3
DA:13,3
DA:15,3
DA:17,1
DA:19,2
DA:21,2
DA:25,0
DA:27,3
LF:9
LH:8
end_of_record
TN:
SF:/home/orelshalem/final-project-OS-threadpool/src/common/MSTMetrics.cpp
FN:9,_ZN10MSTMetrics14getTotalWeightERKSt6vectorI4EdgeSaIS1_EE
FN:19,_ZN10MSTMetrics18getLongestDistanceERK5GraphRKSt6vectorI4EdgeSaIS4_EE
FN:68,_ZN10MSTMetrics18getAverageDistanceERK5GraphRKSt6vectorI4EdgeSaIS4_EE
FN:121,_ZN10MSTMetrics19getShortestDistanceERKSt6vectorI4EdgeSaIS1_EE
FN:169,_ZN10MSTMetrics16calculateMetricsERK5GraphRKSt6vectorI4EdgeSaIS4_EE
FNDA:2,_ZN10MSTMetrics19getShortestDistanceERKSt6vectorI4EdgeSaIS1_EE
FNDA:2,_ZN10MSTMetrics18getAverageDistanceERK5GraphRKSt6vectorI4EdgeSaIS4_EE
FNDA:0,_ZN10MSTMetrics16calculateMetricsERK5GraphRKSt6vectorI4EdgeSaIS4_EE
FNDA:2,_ZN10MSTMetrics18getLongestDistanceERK5GraphRKSt6vectorI4EdgeSaIS4_EE
FNDA:2,_ZN10MSTMetrics14getTotalWeightERKSt6vectorI4EdgeSaIS1_EE
FNF:5
FNH:4
DA:9,2
DA:11,2
DA:12,12
DA:14,10
DA:16,2
DA:19,2
DA:21,2
DA:23,0
DA:26,4
DA:29,12
DA:31,10
DA:32,10
DA:36,14
DA:38,84
DA:40,504
DA:42,720
DA:43,720
DA:44,238
DA:46,56
DA:53,2
DA:54,14
DA:56,42
DA:58,30
DA:60,30
DA:65,2
DA:66,2
DA:68,2
DA:70,2
DA:72,0
DA:75,2
DA:76,4
DA:79,12
DA:81,10
DA:82,10
DA:86,14
DA:88,84
DA:90,504
DA:92,720
DA:93,720
DA:94,238
DA:96,56
DA:103,2
DA:104,2
DA:105,14
DA:107,42
DA:109,30
DA:111,30
DA:112,30
DA:118,2
DA:119,2
DA:121,2
DA:123,2
DA:124,0
DA:126,2
DA:127,4
DA:130,12
DA:132,10
DA:133,10
DA:137,14
DA:139,84
DA:141,504
DA:143,720
DA:144,720
DA:145,238
DA:147,56
DA:154,2
DA:155,14
DA:157,42
DA:159,30
DA:161,30
DA:166,2
DA:167,2
DA:169,0
DA:171,0
DA:172,0
DA:173,0
DA:174,0
DA:175,0
LF:78
LH:69
end_of_record
TN:
SF:/home/orelshalem/final-project-OS-threadpool/src/common/PrimMST.cpp
FN:9,_ZN7PrimMST7findMSTERK5Graph
FNDA:1,_ZN7PrimMST7findMSTERK5Graph
FNF:1
FNH:1
DA:9,1
DA:11,1
DA:13,0
DA:16,1
DA:17,1
DA:18,1
DA:19,1
DA:20,1
DA:22,1
DA:24,1
DA:25,1
DA:26,1
DA:28,8
DA:30,7
DA:31,7
DA:33,7
DA:34,1
DA:36,6
DA:38,6
DA:40,5
DA:43,22
DA:45,16
DA:46,16
DA:48,16
DA:50,6
DA:51,6
DA:52,6
DA:54,6
DA:57,2
DA:58,1
LF:30
LH:29
end_of_record
TN:
SF:/home/orelshalem/final-project-OS-threadpool/src/main.cpp
FN:11,_Z13signalHandleri
FN:20,_Z18consoleInputThreadR6Server
FN:37,main
FNDA:1,_Z18consoleInputThreadR6Server
FNDA:1,main
FNDA:1,_Z13signalHandleri
FNF:3
FNH:3
DA:11,1
DA:13,1
DA:15,1
DA:17,1
DA:20,1
DA:22,1
DA:25,215462320
DA:26,215462319
DA:28,0
DA:29,0
DA:30,0
DA:31,0
DA:32,0
DA:35,0
DA:37,1
DA:39,1
DA:40,1
DA:43,1
DA:44,1
DA:47,1
DA:49,1
DA:52,0
DA:54,0
DA:57,0
DA:58,0
LF:25
LH:15
end_of_record
TN:
SF:/home/orelshalem/final-project-OS-threadpool/src/server/Server.cpp
FN:20,_ZN6ServerC2Ei
FN:61,_ZN6ServerD2Ev
FN:66,_ZN6Server3runEv
FN:102,_ZZN6Server3runEvENKUlvE_clEv
FN:110,_ZN6Server8shutdownEv
FN:124,_ZN6Server12handleClientEi
FN:216,_ZN6Server17handleInitCommandEiRNSt7__cxx1119basic_istringstreamIcSt11char_traitsIcESaIcEEE
FN:305,_ZN6Server22handleAddVertexCommandEiRNSt7__cxx1119basic_istringstreamIcSt11char_traitsIcESaIcEEE
FN:381,_ZN6Server20handleAddEdgeCommandEiRNSt7__cxx1119basic_istringstreamIcSt11char_traitsIcESaIcEEE
FN:419,_ZN6Server23handleRemoveEdgeCommandEiRNSt7__cxx1119basic_istringstreamIcSt11char_traitsIcESaIcEEE
FN:453,_ZN6Server25handleRemoveVertexCommandEiRNSt7__cxx1119basic_istringstreamIcSt11char_traitsIcESaIcEEE
FN:485,_ZN6Server16handleMSTCommandEi
FN:546,_ZZN6Server16handleMSTCommandEiENKUliiNSt7__cxx1112basic_stringIcSt11char_traitsIcESaIcEEERSt13unordered_setIiSt4hashIiESt8equal_toIiESaIiEEE_clEiiS5_SD_
FN:558,_ZZZN6Server16handleMSTCommandEiENKUliiNSt7__cxx1112basic_stringIcSt11char_traitsIcESaIcEEERSt13unordered_setIiSt4hashIiESt8equal_toIiESaIiEEE_clEiiS5_SD_ENKUlRKT_E_clISt4pairIiiEEEDaSH_
FN:587,_ZN6Server19handleMetricCommandEiRNSt7__cxx1119basic_istringstreamIcSt11char_traitsIcESaIcEEE
FN:638,_ZN6Server25handleChangeWeightCommandEiRNSt7__cxx1119basic_istringstreamIcSt11char_traitsIcESaIcEEE
FN:666,_ZN6Server23handlePrintGraphCommandEi
FN:679,_ZN6Server12sendResponseEiRKNSt7__cxx1112basic_stringIcSt11char_traitsIcESaIcEEE
FN:686,_ZN6Server8sendMenuEi
FN:707,_ZN6Server16acquireGraphLockEi
FN:719,_ZN6Server16releaseGraphLockEv
FNDA:1,_ZZN6Server3runEvENKUlvE_clEv
FNDA:2,_ZN6Server25handleRemoveVertexCommandEiRNSt7__cxx1119basic_istringstreamIcSt11char_traitsIcESaIcEEE
FNDA:25,_ZN6Server16releaseGraphLockEv
FNDA:1,_ZN6Server8sendMenuEi
FNDA:1,_ZN6Server8shutdownEv
FNDA:1,_ZN6Server3runEv
FNDA:5,_ZN6Server20handleAddEdgeCommandEiRNSt7__cxx1119basic_istringstreamIcSt11char_traitsIcESaIcEEE
FNDA:1,_ZN6Server25handleChangeWeightCommandEiRNSt7__cxx1119basic_istringstreamIcSt11char_traitsIcESaIcEEE
FNDA:2,_ZN6Server17handleInitCommandEiRNSt7__cxx1119basic_istringstreamIcSt11char_traitsIcESaIcEEE
FNDA:1,_ZN6Server22handleAddVertexCommandEiRNSt7__cxx1119basic_istringstreamIcSt11char_traitsIcESaIcEEE
FNDA:3,_ZN6Server16handleMSTCommandEi
FNDA:70,_ZN6Server12sendResponseEiRKNSt7__cxx1112basic_stringIcSt11char_traitsIcESaIcEEE
FNDA:1,_ZN6Server23handlePrintGraphCommandEi
FNDA:25,_ZN6Server16acquireGraphLockEi
FNDA:1,_ZN6ServerC2Ei
FNDA:0,_ZN6ServerD2Ev
FNDA:8,_ZN6Server19handleMetricCommandEiRNSt7__cxx1119basic_istringstreamIcSt11char_traitsIcESaIcEEE
FNDA:13,_ZZZN6Server16handleMSTCommandEiENKUliiNSt7__cxx1112basic_stringIcSt11char_traitsIcESaIcEEERSt13unordered_setIiSt4hashIiESt8equal_toIiESaIiEEE_clEiiS5_SD_ENKUlRKT_E_clISt4pairIiiEEEDaSH_
FNDA:2,_ZN6Server23handleRemoveEdgeCommandEiRNSt7__cxx1119basic_istringstreamIcSt11char_traitsIcESaIcEEE
FNDA:1,_ZN6Server12handleClientEi
FNDA:15,_ZZN6Server16handleMSTCommandEiENKUliiNSt7__cxx1112basic_stringIcSt11char_traitsIcESaIcEEERSt13unordered_setIiSt4hashIiESt8equal_toIiESaIiEEE_clEiiS5_SD_
FNF:21
FNH:20
DA:20,1
DA:22,1
DA:23,1
DA:25,0
DA:26,0
DA:29,1
DA:30,1
DA:31,1
DA:33,1
DA:34,1
DA:36,0
DA:37,0
DA:38,0
DA:41,1
DA:43,0
DA:44,0
DA:45,0
DA:48,1
DA:50,0
DA:51,0
DA:52,0
DA:56,1
DA:57,1
DA:58,1
DA:59,1
DA:61,0
DA:63,0
DA:64,0
DA:66,1
DA:68,9
DA:71,153
DA:72,9
DA:75,9
DA:76,9
DA:78,9
DA:80,8
DA:82,0
DA:83,0
DA:86,8
DA:89,7
DA:92,1
DA:94,1
DA:95,1
DA:97,0
DA:98,0
DA:99,0
DA:100,0
DA:102,1
DA:103,1
DA:107,0
DA:108,0
DA:110,1
DA:112,1
DA:115,1
DA:116,1
DA:117,1
DA:119,1
DA:121,1
DA:122,1
DA:124,1
DA:126,1
DA:128,26
DA:130,26
DA:131,26
DA:132,26
DA:135,1
DA:138,26
DA:139,26
DA:140,26
DA:143,26
DA:144,26
DA:145,26
DA:147,26
DA:149,0
DA:152,26
DA:153,26
DA:154,26
DA:157,26
DA:158,26
DA:159,26
DA:161,26
DA:163,2
DA:165,24
DA:167,1
DA:169,23
DA:171,5
DA:173,18
DA:175,2
DA:177,16
DA:179,2
DA:181,14
DA:183,3
DA:185,11
DA:187,8
DA:189,3
DA:191,0
DA:193,3
DA:195,1
DA:196,1
DA:198,2
DA:200,1
DA:202,1
DA:204,1
DA:208,0
DA:209,0
DA:211,28
DA:213,1
DA:214,1
DA:216,2
DA:218,2
DA:220,0
DA:224,2
DA:226,0
DA:227,0
DA:228,0
DA:231,2
DA:233,2
DA:234,2
DA:235,2
DA:236,2
DA:238,0
DA:239,0
DA:240,0
DA:243,2
DA:246,2
DA:247,2
DA:248,2
DA:250,0
DA:251,0
DA:254,2
DA:255,2
DA:256,2
DA:258,2
DA:260,2
DA:262,0
DA:263,0
DA:264,0
DA:267,2
DA:269,15
DA:271,13
DA:272,13
DA:273,13
DA:275,0
DA:277,13
DA:278,13
DA:280,13
DA:282,13
DA:284,13
DA:285,13
DA:289,0
DA:294,0
DA:296,13
DA:298,2
DA:299,2
DA:300,2
DA:302,2
DA:303,2
DA:305,1
DA:307,1
DA:309,0
DA:312,1
DA:313,1
DA:315,1
DA:316,1
DA:318,1
DA:319,1
DA:320,1
DA:322,0
DA:323,0
DA:326,1
DA:327,1
DA:332,1
DA:334,0
DA:336,0
DA:337,0
DA:338,0
DA:339,0
DA:341,1
DA:343,1
DA:344,1
DA:345,1
DA:346,1
DA:348,0
DA:349,0
DA:352,1
DA:353,1
DA:358,1
DA:360,0
DA:362,0
DA:363,0
DA:364,0
DA:365,0
DA:367,1
DA:368,1
DA:369,1
DA:372,0
DA:375,1
DA:376,1
DA:378,1
DA:379,1
DA:381,5
DA:383,5
DA:385,1
DA:388,5
DA:392,5
DA:394,0
DA:396,0
DA:397,0
DA:398,0
DA:399,0
DA:401,5
DA:402,10
DA:404,1
DA:405,1
DA:406,1
DA:409,4
DA:410,12
DA:411,16
DA:413,4
DA:414,4
DA:416,4
DA:417,4
DA:419,2
DA:421,2
DA:423,0
DA:426,2
DA:428,2
DA:430,2
DA:431,4
DA:433,0
DA:434,0
DA:435,0
DA:438,2
DA:440,2
DA:444,0
DA:447,2
DA:448,2
DA:450,2
DA:451,2
DA:453,2
DA:455,2
DA:457,0
DA:459,2
DA:462,2
DA:464,0
DA:465,0
DA:466,0
DA:469,2
DA:471,0
DA:472,0
DA:473,0
DA:476,2
DA:477,2
DA:479,2
DA:480,2
DA:482,2
DA:483,2
DA:485,3
DA:487,3
DA:489,0
DA:492,3
DA:494,0
DA:495,0
DA:496,0
DA:499,3
DA:501,3
DA:502,3
DA:503,3
DA:505,0
DA:506,0
DA:508,3
DA:509,3
DA:511,3
DA:513,0
DA:514,0
DA:515,0
DA:518,3
DA:521,3
DA:522,3
DA:523,3
DA:524,3
DA:525,0
DA:527,0
DA:528,0
DA:529,0
DA:530,0
DA:532,3
DA:533,3
DA:534,3
DA:537,3
DA:538,15
DA:540,12
DA:541,12
DA:546,15
DA:548,15
DA:549,0
DA:550,15
DA:552,15
DA:553,15
DA:555,15
DA:557,12
DA:558,13
DA:559,13
DA:560,12
DA:562,12
DA:565,15
DA:567,15
DA:569,39
DA:571,24
DA:573,12
DA:576,3
DA:579,3
DA:580,3
DA:582,3
DA:584,3
DA:585,3
DA:587,8
DA:589,8
DA:591,0
DA:594,8
DA:596,0
DA:597,0
DA:598,0
DA:601,8
DA:603,0
DA:604,0
DA:605,0
DA:608,8
DA:609,8
DA:611,8
DA:612,8
DA:614,2
DA:616,6
DA:618,2
DA:620,4
DA:622,2
DA:624,2
DA:626,2
DA:630,0
DA:633,8
DA:635,8
DA:636,8
DA:638,1
DA:640,1
DA:642,0
DA:646,1
DA:648,0
DA:649,0
DA:650,0
DA:653,1
DA:655,0
DA:656,0
DA:660,1
DA:663,1
DA:666,1
DA:668,1
DA:670,0
DA:673,1
DA:674,1
DA:676,1
DA:677,1
DA:679,70
DA:681,70
DA:682,70
DA:683,70
DA:684,70
DA:686,1
DA:688,1
DA:702,1
DA:704,1
DA:705,1
DA:707,25
DA:709,25
DA:710,25
DA:712,0
DA:713,0
DA:715,25
DA:716,25
DA:717,25
DA:719,25
DA:721,25
DA:722,25
DA:723,25
DA:724,25
LF:384
LH:278
end_of_record
TN:
SF:/home/orelshalem/final-project-OS-threadpool/src/server/Server.hpp
FN:23,_ZN6Server8lockCoutEv
FN:24,_ZN6Server10unlockCoutEv
FNDA:0,_ZN6Server8lockCoutEv
FNDA:0,_ZN6Server10unlockCoutEv
FNF:2
FNH:0
DA:23,0
DA:24,0
LF:2
LH:0
end_of_record
TN:
SF:/home/orelshalem/final-project-OS-threadpool/src/utils/ThreadPool.cpp
FN:3,_ZN10ThreadPoolC2Em
FN:7,_ZZN10ThreadPoolC4EmENKUlvE_clEv
FN:12,_ZN10ThreadPoolD2Ev
FN:17,_ZN10ThreadPool7enqueueESt8functionIFvvEE
FN:27,_ZN10ThreadPool12workerThreadEv
FN:34,_ZZN10ThreadPool12workerThreadEvENKUlvE_clEv
FN:45,_ZN10ThreadPool4exitEv
FNDA:1,_ZN10ThreadPool4exitEv
FNDA:1,_ZN10ThreadPool7enqueueESt8functionIFvvEE
FNDA:4,_ZZN10ThreadPoolC4EmENKUlvE_clEv
FNDA:0,_ZN10ThreadPoolD2Ev
FNDA:10,_ZZN10ThreadPool12workerThreadEvENKUlvE_clEv
FNDA:1,_ZN10ThreadPoolC2Em
FNDA:4,_ZN10ThreadPool12workerThreadEv
FNF:7
FNH:6
DA:3,1
DA:5,5
DA:7,4
DA:8,4
DA:10,1
DA:12,0
DA:14,0
DA:15,0
DA:17,1
DA:19,1
DA:20,1
DA:21,0
DA:22,1
DA:23,1
DA:24,1
DA:25,1
DA:27,5
DA:31,5
DA:33,5
DA:34,5
DA:35,10
DA:36,5
DA:37,8
DA:38,1
DA:39,1
DA:40,5
DA:41,1
DA:42,6
DA:45,1
DA:48,1
DA:49,1
DA:50,1
DA:51,1
DA:52,5
DA:54,4
DA:55,4
DA:57,1
LF:37
LH:33
end_of_record
